target datalayout = "e-m:e-p270:32:32-p271:32:32-p272:64:64-i64:64-i128:128-f80:128-n8:16:32:64-S128"
target triple = "x86_64-pc-linux-gnu"

; Function Attrs: nounwind uwtable
define dso_local i32 @uv_barrier_wait(ptr noundef %0) #0 {
  %2 = alloca ptr, align 8
  %3 = alloca i32, align 4
  store ptr %0, ptr %2, align 8, !tbaa !4
  call void @llvm.lifetime.start.p0(i64 4, ptr %3) #8
  %4 = load ptr, ptr %2, align 8, !tbaa !4
  %5 = call i32 @pthread_barrier_wait(ptr noundef %4) #8
  store i32 %5, ptr %3, align 4, !tbaa !8
  %6 = load i32, ptr %3, align 4, !tbaa !8
  %7 = icmp ne i32 %6, 0
  br i1 %7, label %8, label %13

8:                                                ; preds = %1
  %9 = load i32, ptr %3, align 4, !tbaa !8
  %10 = icmp ne i32 %9, -1
  br i1 %10, label %11, label %12

11:                                               ; preds = %8
  call void @abort() #9
  unreachable

12:                                               ; preds = %8
  br label %13

13:                                               ; preds = %12, %1
  %14 = load i32, ptr %3, align 4, !tbaa !8
  %15 = icmp eq i32 %14, -1
  %16 = zext i1 %15 to i32
  call void @llvm.lifetime.end.p0(i64 4, ptr %3) #8
  ret i32 %16
}