; Function Attrs: nounwind uwtable
define dso_local range(i32 0, 2) i32 @uv_barrier_wait(ptr noundef %0) local_unnamed_addr #0 {
  %2 = tail call i32 @pthread_barrier_wait(ptr noundef %0) #10
  %3 = add i32 %2, -1
  %or.cond = icmp ult i32 %3, -2
  br i1 %or.cond, label %4, label %5

4:                                                ; preds = %1
  tail call void @abort() #11
  unreachable

5:                                                ; preds = %1
  %6 = icmp eq i32 %2, -1
  %7 = zext i1 %6 to i32
  ret i32 %7
}